
moodlight.elf:     file format elf32-avr

Sections:
Idx Name          Size      VMA       LMA       File off  Algn
  0 .data         00000000  00800100  00800100  000005be  2**0
                  CONTENTS, ALLOC, LOAD, DATA
  1 .text         0000054a  00000000  00000000  00000074  2**1
                  CONTENTS, ALLOC, LOAD, READONLY, CODE
  2 .bss          0000002e  00800100  00800100  000005be  2**0
                  ALLOC
  3 .comment      00000030  00000000  00000000  000005be  2**0
                  CONTENTS, READONLY
  4 .note.gnu.avr.deviceinfo 00000040  00000000  00000000  000005f0  2**2
                  CONTENTS, READONLY
  5 .debug_aranges 00000100  00000000  00000000  00000630  2**0
                  CONTENTS, READONLY, DEBUGGING
  6 .debug_info   00001031  00000000  00000000  00000730  2**0
                  CONTENTS, READONLY, DEBUGGING
  7 .debug_abbrev 00000c1f  00000000  00000000  00001761  2**0
                  CONTENTS, READONLY, DEBUGGING
  8 .debug_line   000008e6  00000000  00000000  00002380  2**0
                  CONTENTS, READONLY, DEBUGGING
  9 .debug_frame  0000024c  00000000  00000000  00002c68  2**2
                  CONTENTS, READONLY, DEBUGGING
 10 .debug_str    0000069a  00000000  00000000  00002eb4  2**0
                  CONTENTS, READONLY, DEBUGGING
 11 .debug_loc    0000054e  00000000  00000000  0000354e  2**0
                  CONTENTS, READONLY, DEBUGGING
 12 .debug_ranges 000000c0  00000000  00000000  00003a9c  2**0
                  CONTENTS, READONLY, DEBUGGING

Disassembly of section .text:

00000000 <__vectors>:
   0:	0c 94 5a 00 	jmp	0xb4	; 0xb4 <__ctors_end>
   4:	0c 94 6c 00 	jmp	0xd8	; 0xd8 <__bad_interrupt>
   8:	0c 94 6c 00 	jmp	0xd8	; 0xd8 <__bad_interrupt>
   c:	0c 94 6c 00 	jmp	0xd8	; 0xd8 <__bad_interrupt>
  10:	0c 94 6c 00 	jmp	0xd8	; 0xd8 <__bad_interrupt>
  14:	0c 94 6c 00 	jmp	0xd8	; 0xd8 <__bad_interrupt>
  18:	0c 94 6c 00 	jmp	0xd8	; 0xd8 <__bad_interrupt>
  1c:	0c 94 a8 01 	jmp	0x350	; 0x350 <__vector_7>
  20:	0c 94 6c 00 	jmp	0xd8	; 0xd8 <__bad_interrupt>
  24:	0c 94 6c 00 	jmp	0xd8	; 0xd8 <__bad_interrupt>
  28:	0c 94 6c 00 	jmp	0xd8	; 0xd8 <__bad_interrupt>
  2c:	0c 94 6c 00 	jmp	0xd8	; 0xd8 <__bad_interrupt>
  30:	0c 94 6c 00 	jmp	0xd8	; 0xd8 <__bad_interrupt>
  34:	0c 94 6c 00 	jmp	0xd8	; 0xd8 <__bad_interrupt>
  38:	0c 94 6c 00 	jmp	0xd8	; 0xd8 <__bad_interrupt>
  3c:	0c 94 6c 00 	jmp	0xd8	; 0xd8 <__bad_interrupt>
  40:	0c 94 6c 00 	jmp	0xd8	; 0xd8 <__bad_interrupt>
  44:	0c 94 6c 00 	jmp	0xd8	; 0xd8 <__bad_interrupt>
  48:	0c 94 6c 00 	jmp	0xd8	; 0xd8 <__bad_interrupt>
  4c:	0c 94 6c 00 	jmp	0xd8	; 0xd8 <__bad_interrupt>
  50:	0c 94 6c 00 	jmp	0xd8	; 0xd8 <__bad_interrupt>
  54:	0c 94 6c 00 	jmp	0xd8	; 0xd8 <__bad_interrupt>
  58:	0c 94 6c 00 	jmp	0xd8	; 0xd8 <__bad_interrupt>
  5c:	0c 94 6c 00 	jmp	0xd8	; 0xd8 <__bad_interrupt>
  60:	0c 94 6c 00 	jmp	0xd8	; 0xd8 <__bad_interrupt>
  64:	0c 94 6c 00 	jmp	0xd8	; 0xd8 <__bad_interrupt>
  68:	0c 94 6c 00 	jmp	0xd8	; 0xd8 <__bad_interrupt>
  6c:	0c 94 6c 00 	jmp	0xd8	; 0xd8 <__bad_interrupt>
  70:	0c 94 cc 01 	jmp	0x398	; 0x398 <__vector_28>
  74:	0c 94 6c 00 	jmp	0xd8	; 0xd8 <__bad_interrupt>
  78:	0c 94 6c 00 	jmp	0xd8	; 0xd8 <__bad_interrupt>
  7c:	0c 94 6c 00 	jmp	0xd8	; 0xd8 <__bad_interrupt>
  80:	0c 94 6c 00 	jmp	0xd8	; 0xd8 <__bad_interrupt>
  84:	0c 94 6c 00 	jmp	0xd8	; 0xd8 <__bad_interrupt>
  88:	0c 94 6c 00 	jmp	0xd8	; 0xd8 <__bad_interrupt>
  8c:	0c 94 6c 00 	jmp	0xd8	; 0xd8 <__bad_interrupt>
  90:	0c 94 6c 00 	jmp	0xd8	; 0xd8 <__bad_interrupt>
  94:	0c 94 6c 00 	jmp	0xd8	; 0xd8 <__bad_interrupt>
  98:	0c 94 6c 00 	jmp	0xd8	; 0xd8 <__bad_interrupt>
  9c:	0c 94 6c 00 	jmp	0xd8	; 0xd8 <__bad_interrupt>
  a0:	0c 94 6c 00 	jmp	0xd8	; 0xd8 <__bad_interrupt>
  a4:	0c 94 6c 00 	jmp	0xd8	; 0xd8 <__bad_interrupt>
  a8:	0c 94 6c 00 	jmp	0xd8	; 0xd8 <__bad_interrupt>
  ac:	0c 94 6c 00 	jmp	0xd8	; 0xd8 <__bad_interrupt>
  b0:	0c 94 6c 00 	jmp	0xd8	; 0xd8 <__bad_interrupt>

000000b4 <__ctors_end>:
  b4:	11 24       	eor	r1, r1
  b6:	1f be       	out	0x3f, r1	; 63
  b8:	cf ef       	ldi	r28, 0xFF	; 255
  ba:	d8 e0       	ldi	r29, 0x08	; 8
  bc:	de bf       	out	0x3e, r29	; 62
  be:	cd bf       	out	0x3d, r28	; 61

000000c0 <__do_clear_bss>:
  c0:	21 e0       	ldi	r18, 0x01	; 1
  c2:	a0 e0       	ldi	r26, 0x00	; 0
  c4:	b1 e0       	ldi	r27, 0x01	; 1
  c6:	01 c0       	rjmp	.+2      	; 0xca <.do_clear_bss_start>

000000c8 <.do_clear_bss_loop>:
  c8:	1d 92       	st	X+, r1

000000ca <.do_clear_bss_start>:
  ca:	ae 32       	cpi	r26, 0x2E	; 46
  cc:	b2 07       	cpc	r27, r18
  ce:	e1 f7       	brne	.-8      	; 0xc8 <.do_clear_bss_loop>
  d0:	0e 94 f0 01 	call	0x3e0	; 0x3e0 <main>
  d4:	0c 94 a3 02 	jmp	0x546	; 0x546 <_exit>

000000d8 <__bad_interrupt>:
  d8:	0c 94 00 00 	jmp	0	; 0x0 <__vectors>

000000dc <alarm_init>:
/* Turns the alarm sound off*/
void resetAlarm(void)
{
	timeset = 0;
	seconds = 0;
	stopAlarmSound();
  dc:	cf 93       	push	r28
  de:	df 93       	push	r29
  e0:	8a b1       	in	r24, 0x0a	; 10
  e2:	80 66       	ori	r24, 0x60	; 96
  e4:	8a b9       	out	0x0a, r24	; 10
  e6:	54 9a       	sbi	0x0a, 4	; 10
  e8:	5c 9a       	sbi	0x0b, 4	; 11
  ea:	14 bc       	out	0x24, r1	; 36
  ec:	15 bc       	out	0x25, r1	; 37
  ee:	84 b5       	in	r24, 0x24	; 36
  f0:	80 6a       	ori	r24, 0xA0	; 160
  f2:	84 bd       	out	0x24, r24	; 36
  f4:	84 b5       	in	r24, 0x24	; 36
  f6:	81 60       	ori	r24, 0x01	; 1
  f8:	84 bd       	out	0x24, r24	; 36
  fa:	85 b5       	in	r24, 0x25	; 37
  fc:	83 60       	ori	r24, 0x03	; 3
  fe:	85 bd       	out	0x25, r24	; 37
 100:	8f e3       	ldi	r24, 0x3F	; 63
 102:	87 bd       	out	0x27, r24	; 39
 104:	80 ec       	ldi	r24, 0xC0	; 192
 106:	88 bd       	out	0x28, r24	; 40
 108:	c0 eb       	ldi	r28, 0xB0	; 176
 10a:	d0 e0       	ldi	r29, 0x00	; 0
 10c:	18 82       	st	Y, r1
 10e:	a1 eb       	ldi	r26, 0xB1	; 177
 110:	b0 e0       	ldi	r27, 0x00	; 0
 112:	1c 92       	st	X, r1
 114:	10 92 b6 00 	sts	0x00B6, r1	; 0x8000b6 <__TEXT_REGION_LENGTH__+0x7e00b6>
 118:	e0 e7       	ldi	r30, 0x70	; 112
 11a:	f0 e0       	ldi	r31, 0x00	; 0
 11c:	10 82       	st	Z, r1
 11e:	88 81       	ld	r24, Y
 120:	82 60       	ori	r24, 0x02	; 2
 122:	88 83       	st	Y, r24
 124:	8c 91       	ld	r24, X
 126:	87 60       	ori	r24, 0x07	; 7
 128:	8c 93       	st	X, r24
 12a:	86 e6       	ldi	r24, 0x66	; 102
 12c:	80 93 b3 00 	sts	0x00B3, r24	; 0x8000b3 <__TEXT_REGION_LENGTH__+0x7e00b3>
 130:	80 81       	ld	r24, Z
 132:	82 60       	ori	r24, 0x02	; 2
 134:	80 83       	st	Z, r24
 136:	78 94       	sei
 138:	df 91       	pop	r29
 13a:	cf 91       	pop	r28
 13c:	08 95       	ret

0000013e <setAlarmDuration>:
 13e:	90 93 05 01 	sts	0x0105, r25	; 0x800105 <alarmDuration+0x1>
 142:	80 93 04 01 	sts	0x0104, r24	; 0x800104 <alarmDuration>
 146:	08 95       	ret

00000148 <setAlarmTime>:
 148:	60 93 00 01 	sts	0x0100, r22	; 0x800100 <_edata>
 14c:	70 93 01 01 	sts	0x0101, r23	; 0x800101 <_edata+0x1>
 150:	80 93 02 01 	sts	0x0102, r24	; 0x800102 <_edata+0x2>
 154:	90 93 03 01 	sts	0x0103, r25	; 0x800103 <_edata+0x3>
 158:	60 93 06 01 	sts	0x0106, r22	; 0x800106 <timeset>
 15c:	70 93 07 01 	sts	0x0107, r23	; 0x800107 <timeset+0x1>
 160:	80 93 08 01 	sts	0x0108, r24	; 0x800108 <timeset+0x2>
 164:	90 93 09 01 	sts	0x0109, r25	; 0x800109 <timeset+0x3>
 168:	08 95       	ret

0000016a <stopAlarmSound>:
 16a:	5c 9a       	sbi	0x0b, 4	; 11
 16c:	08 95       	ret

0000016e <startAlarmSound>:
 16e:	80 91 04 01 	lds	r24, 0x0104	; 0x800104 <alarmDuration>
 172:	90 91 05 01 	lds	r25, 0x0105	; 0x800105 <alarmDuration+0x1>
 176:	89 2b       	or	r24, r25
 178:	71 f0       	breq	.+28     	; 0x196 <startAlarmSound+0x28>
 17a:	9b b1       	in	r25, 0x0b	; 11
 17c:	80 e1       	ldi	r24, 0x10	; 16
 17e:	89 27       	eor	r24, r25
 180:	8b b9       	out	0x0b, r24	; 11
 182:	80 91 04 01 	lds	r24, 0x0104	; 0x800104 <alarmDuration>
 186:	90 91 05 01 	lds	r25, 0x0105	; 0x800105 <alarmDuration+0x1>
 18a:	01 97       	sbiw	r24, 0x01	; 1
 18c:	90 93 05 01 	sts	0x0105, r25	; 0x800105 <alarmDuration+0x1>
 190:	80 93 04 01 	sts	0x0104, r24	; 0x800104 <alarmDuration>
 194:	08 95       	ret
 196:	0e 94 b5 00 	call	0x16a	; 0x16a <stopAlarmSound>
 19a:	08 95       	ret

0000019c <TIMER2_IRQ>:
}
void TIMER2_IRQ(void)
{
	if(herz != 76)
 19c:	80 91 0a 01 	lds	r24, 0x010A	; 0x80010a <herz>
 1a0:	8c 34       	cpi	r24, 0x4C	; 76
 1a2:	21 f0       	breq	.+8      	; 0x1ac <TIMER2_IRQ+0x10>
	{
		herz++;
 1a4:	8f 5f       	subi	r24, 0xFF	; 255
 1a6:	80 93 0a 01 	sts	0x010A, r24	; 0x80010a <herz>
 1aa:	08 95       	ret
	}
	else
	{
		herz = 0;
 1ac:	10 92 0a 01 	sts	0x010A, r1	; 0x80010a <herz>
		if(seconds == 0 && timeset != 0)
 1b0:	80 91 00 01 	lds	r24, 0x0100	; 0x800100 <_edata>
 1b4:	90 91 01 01 	lds	r25, 0x0101	; 0x800101 <_edata+0x1>
 1b8:	a0 91 02 01 	lds	r26, 0x0102	; 0x800102 <_edata+0x2>
 1bc:	b0 91 03 01 	lds	r27, 0x0103	; 0x800103 <_edata+0x3>
 1c0:	00 97       	sbiw	r24, 0x00	; 0
 1c2:	a1 05       	cpc	r26, r1
 1c4:	b1 05       	cpc	r27, r1
 1c6:	f9 f4       	brne	.+62     	; 0x206 <TIMER2_IRQ+0x6a>
 1c8:	40 91 06 01 	lds	r20, 0x0106	; 0x800106 <timeset>
 1cc:	50 91 07 01 	lds	r21, 0x0107	; 0x800107 <timeset+0x1>
 1d0:	60 91 08 01 	lds	r22, 0x0108	; 0x800108 <timeset+0x2>
 1d4:	70 91 09 01 	lds	r23, 0x0109	; 0x800109 <timeset+0x3>
 1d8:	45 2b       	or	r20, r21
 1da:	46 2b       	or	r20, r22
 1dc:	47 2b       	or	r20, r23
 1de:	99 f0       	breq	.+38     	; 0x206 <TIMER2_IRQ+0x6a>
		{
			startAlarmSound();
 1e0:	0e 94 b7 00 	call	0x16e	; 0x16e <startAlarmSound>
			seconds = 0;
 1e4:	10 92 00 01 	sts	0x0100, r1	; 0x800100 <_edata>
 1e8:	10 92 01 01 	sts	0x0101, r1	; 0x800101 <_edata+0x1>
 1ec:	10 92 02 01 	sts	0x0102, r1	; 0x800102 <_edata+0x2>
 1f0:	10 92 03 01 	sts	0x0103, r1	; 0x800103 <_edata+0x3>
			timeset = 0;
 1f4:	10 92 06 01 	sts	0x0106, r1	; 0x800106 <timeset>
 1f8:	10 92 07 01 	sts	0x0107, r1	; 0x800107 <timeset+0x1>
 1fc:	10 92 08 01 	sts	0x0108, r1	; 0x800108 <timeset+0x2>
 200:	10 92 09 01 	sts	0x0109, r1	; 0x800109 <timeset+0x3>
 204:	08 95       	ret
		}
		else
		{
			seconds--;
 206:	01 97       	sbiw	r24, 0x01	; 1
 208:	a1 09       	sbc	r26, r1
 20a:	b1 09       	sbc	r27, r1
 20c:	80 93 00 01 	sts	0x0100, r24	; 0x800100 <_edata>
 210:	90 93 01 01 	sts	0x0101, r25	; 0x800101 <_edata+0x1>
 214:	a0 93 02 01 	sts	0x0102, r26	; 0x800102 <_edata+0x2>
 218:	b0 93 03 01 	sts	0x0103, r27	; 0x800103 <_edata+0x3>
 21c:	08 95       	ret

0000021e <LED_initPWM>:
 21e:	8a b1       	in	r24, 0x0a	; 10
 220:	87 60       	ori	r24, 0x07	; 7
 222:	8a b9       	out	0x0a, r24	; 10
 224:	84 b1       	in	r24, 0x04	; 4
 226:	86 60       	ori	r24, 0x06	; 6
 228:	84 b9       	out	0x04, r24	; 4
 22a:	5a 9a       	sbi	0x0b, 2	; 11
 22c:	a0 e9       	ldi	r26, 0x90	; 144
 22e:	b0 e0       	ldi	r27, 0x00	; 0
 230:	1c 92       	st	X, r1
 232:	e1 e9       	ldi	r30, 0x91	; 145
 234:	f0 e0       	ldi	r31, 0x00	; 0
 236:	10 82       	st	Z, r1
 238:	10 92 92 00 	sts	0x0092, r1	; 0x800092 <__TEXT_REGION_LENGTH__+0x7e0092>
 23c:	8c 91       	ld	r24, X
 23e:	80 68       	ori	r24, 0x80	; 128
 240:	8c 93       	st	X, r24
 242:	8c 91       	ld	r24, X
 244:	82 60       	ori	r24, 0x02	; 2
 246:	8c 93       	st	X, r24
 248:	80 81       	ld	r24, Z
 24a:	88 61       	ori	r24, 0x18	; 24
 24c:	80 83       	st	Z, r24
 24e:	80 81       	ld	r24, Z
 250:	81 60       	ori	r24, 0x01	; 1
 252:	80 83       	st	Z, r24
 254:	8f e9       	ldi	r24, 0x9F	; 159
 256:	90 e0       	ldi	r25, 0x00	; 0
 258:	90 93 97 00 	sts	0x0097, r25	; 0x800097 <__TEXT_REGION_LENGTH__+0x7e0097>
 25c:	80 93 96 00 	sts	0x0096, r24	; 0x800096 <__TEXT_REGION_LENGTH__+0x7e0096>
 260:	81 e0       	ldi	r24, 0x01	; 1
 262:	90 e0       	ldi	r25, 0x00	; 0
 264:	90 93 99 00 	sts	0x0099, r25	; 0x800099 <__TEXT_REGION_LENGTH__+0x7e0099>
 268:	80 93 98 00 	sts	0x0098, r24	; 0x800098 <__TEXT_REGION_LENGTH__+0x7e0098>
 26c:	a0 e8       	ldi	r26, 0x80	; 128
 26e:	b0 e0       	ldi	r27, 0x00	; 0
 270:	1c 92       	st	X, r1
 272:	e1 e8       	ldi	r30, 0x81	; 129
 274:	f0 e0       	ldi	r31, 0x00	; 0
 276:	10 82       	st	Z, r1
 278:	10 92 82 00 	sts	0x0082, r1	; 0x800082 <__TEXT_REGION_LENGTH__+0x7e0082>
 27c:	8c 91       	ld	r24, X
 27e:	80 6a       	ori	r24, 0xA0	; 160
 280:	8c 93       	st	X, r24
 282:	8c 91       	ld	r24, X
 284:	82 60       	ori	r24, 0x02	; 2
 286:	8c 93       	st	X, r24
 288:	80 81       	ld	r24, Z
 28a:	88 61       	ori	r24, 0x18	; 24
 28c:	80 83       	st	Z, r24
 28e:	80 81       	ld	r24, Z
 290:	81 60       	ori	r24, 0x01	; 1
 292:	80 83       	st	Z, r24
 294:	2f ef       	ldi	r18, 0xFF	; 255
 296:	3f e0       	ldi	r19, 0x0F	; 15
 298:	30 93 87 00 	sts	0x0087, r19	; 0x800087 <__TEXT_REGION_LENGTH__+0x7e0087>
 29c:	20 93 86 00 	sts	0x0086, r18	; 0x800086 <__TEXT_REGION_LENGTH__+0x7e0086>
 2a0:	10 92 89 00 	sts	0x0089, r1	; 0x800089 <__TEXT_REGION_LENGTH__+0x7e0089>
 2a4:	10 92 88 00 	sts	0x0088, r1	; 0x800088 <__TEXT_REGION_LENGTH__+0x7e0088>
 2a8:	10 92 8b 00 	sts	0x008B, r1	; 0x80008b <__TEXT_REGION_LENGTH__+0x7e008b>
 2ac:	10 92 8a 00 	sts	0x008A, r1	; 0x80008a <__TEXT_REGION_LENGTH__+0x7e008a>
 2b0:	a0 ea       	ldi	r26, 0xA0	; 160
 2b2:	b0 e0       	ldi	r27, 0x00	; 0
 2b4:	1c 92       	st	X, r1
 2b6:	e1 ea       	ldi	r30, 0xA1	; 161
 2b8:	f0 e0       	ldi	r31, 0x00	; 0
 2ba:	10 82       	st	Z, r1
 2bc:	10 92 a2 00 	sts	0x00A2, r1	; 0x8000a2 <__TEXT_REGION_LENGTH__+0x7e00a2>
 2c0:	8c 91       	ld	r24, X
 2c2:	80 6a       	ori	r24, 0xA0	; 160
 2c4:	8c 93       	st	X, r24
 2c6:	8c 91       	ld	r24, X
 2c8:	82 60       	ori	r24, 0x02	; 2
 2ca:	8c 93       	st	X, r24
 2cc:	80 81       	ld	r24, Z
 2ce:	88 61       	ori	r24, 0x18	; 24
 2d0:	80 83       	st	Z, r24
 2d2:	80 81       	ld	r24, Z
 2d4:	81 60       	ori	r24, 0x01	; 1
 2d6:	80 83       	st	Z, r24
 2d8:	30 93 a7 00 	sts	0x00A7, r19	; 0x8000a7 <__TEXT_REGION_LENGTH__+0x7e00a7>
 2dc:	20 93 a6 00 	sts	0x00A6, r18	; 0x8000a6 <__TEXT_REGION_LENGTH__+0x7e00a6>
 2e0:	10 92 a9 00 	sts	0x00A9, r1	; 0x8000a9 <__TEXT_REGION_LENGTH__+0x7e00a9>
 2e4:	10 92 a8 00 	sts	0x00A8, r1	; 0x8000a8 <__TEXT_REGION_LENGTH__+0x7e00a8>
 2e8:	10 92 ab 00 	sts	0x00AB, r1	; 0x8000ab <__TEXT_REGION_LENGTH__+0x7e00ab>
 2ec:	10 92 aa 00 	sts	0x00AA, r1	; 0x8000aa <__TEXT_REGION_LENGTH__+0x7e00aa>
 2f0:	08 95       	ret

000002f2 <LED_setValue>:
 2f2:	82 30       	cpi	r24, 0x02	; 2
 2f4:	91 f0       	breq	.+36     	; 0x31a <LED_setValue+0x28>
 2f6:	18 f4       	brcc	.+6      	; 0x2fe <LED_setValue+0xc>
 2f8:	81 30       	cpi	r24, 0x01	; 1
 2fa:	31 f0       	breq	.+12     	; 0x308 <LED_setValue+0x16>
 2fc:	08 95       	ret
 2fe:	83 30       	cpi	r24, 0x03	; 3
 300:	a9 f0       	breq	.+42     	; 0x32c <LED_setValue+0x3a>
 302:	84 30       	cpi	r24, 0x04	; 4
 304:	e1 f0       	breq	.+56     	; 0x33e <LED_setValue+0x4c>
 306:	08 95       	ret
 308:	80 e1       	ldi	r24, 0x10	; 16
 30a:	68 9f       	mul	r22, r24
 30c:	b0 01       	movw	r22, r0
 30e:	11 24       	eor	r1, r1
 310:	70 93 89 00 	sts	0x0089, r23	; 0x800089 <__TEXT_REGION_LENGTH__+0x7e0089>
 314:	60 93 88 00 	sts	0x0088, r22	; 0x800088 <__TEXT_REGION_LENGTH__+0x7e0088>
 318:	08 95       	ret
 31a:	80 e1       	ldi	r24, 0x10	; 16
 31c:	68 9f       	mul	r22, r24
 31e:	b0 01       	movw	r22, r0
 320:	11 24       	eor	r1, r1
 322:	70 93 8b 00 	sts	0x008B, r23	; 0x80008b <__TEXT_REGION_LENGTH__+0x7e008b>
 326:	60 93 8a 00 	sts	0x008A, r22	; 0x80008a <__TEXT_REGION_LENGTH__+0x7e008a>
 32a:	08 95       	ret
 32c:	80 e1       	ldi	r24, 0x10	; 16
 32e:	68 9f       	mul	r22, r24
 330:	b0 01       	movw	r22, r0
 332:	11 24       	eor	r1, r1
 334:	70 93 ab 00 	sts	0x00AB, r23	; 0x8000ab <__TEXT_REGION_LENGTH__+0x7e00ab>
 338:	60 93 aa 00 	sts	0x00AA, r22	; 0x8000aa <__TEXT_REGION_LENGTH__+0x7e00aa>
 33c:	08 95       	ret
 33e:	80 e1       	ldi	r24, 0x10	; 16
 340:	68 9f       	mul	r22, r24
 342:	b0 01       	movw	r22, r0
 344:	11 24       	eor	r1, r1
 346:	70 93 a9 00 	sts	0x00A9, r23	; 0x8000a9 <__TEXT_REGION_LENGTH__+0x7e00a9>
 34a:	60 93 a8 00 	sts	0x00A8, r22	; 0x8000a8 <__TEXT_REGION_LENGTH__+0x7e00a8>
 34e:	08 95       	ret

00000350 <__vector_7>:
#include "Headerfiles/alarm.h"
#include "Headerfiles/UART.h"


ISR(TIMER2_COMPA_vect)
{
 350:	1f 92       	push	r1
 352:	0f 92       	push	r0
 354:	0f b6       	in	r0, 0x3f	; 63
 356:	0f 92       	push	r0
 358:	11 24       	eor	r1, r1
 35a:	2f 93       	push	r18
 35c:	3f 93       	push	r19
 35e:	4f 93       	push	r20
 360:	5f 93       	push	r21
 362:	6f 93       	push	r22
 364:	7f 93       	push	r23
 366:	8f 93       	push	r24
 368:	9f 93       	push	r25
 36a:	af 93       	push	r26
 36c:	bf 93       	push	r27
 36e:	ef 93       	push	r30
 370:	ff 93       	push	r31
	TIMER2_IRQ();
 372:	0e 94 ce 00 	call	0x19c	; 0x19c <TIMER2_IRQ>
}
 376:	ff 91       	pop	r31
 378:	ef 91       	pop	r30
 37a:	bf 91       	pop	r27
 37c:	af 91       	pop	r26
 37e:	9f 91       	pop	r25
 380:	8f 91       	pop	r24
 382:	7f 91       	pop	r23
 384:	6f 91       	pop	r22
 386:	5f 91       	pop	r21
 388:	4f 91       	pop	r20
 38a:	3f 91       	pop	r19
 38c:	2f 91       	pop	r18
 38e:	0f 90       	pop	r0
 390:	0f be       	out	0x3f, r0	; 63
 392:	0f 90       	pop	r0
 394:	1f 90       	pop	r1
 396:	18 95       	reti

00000398 <__vector_28>:
ISR(USART1_RX_vect)
{
 398:	1f 92       	push	r1
 39a:	0f 92       	push	r0
 39c:	0f b6       	in	r0, 0x3f	; 63
 39e:	0f 92       	push	r0
 3a0:	11 24       	eor	r1, r1
 3a2:	2f 93       	push	r18
 3a4:	3f 93       	push	r19
 3a6:	4f 93       	push	r20
 3a8:	5f 93       	push	r21
 3aa:	6f 93       	push	r22
 3ac:	7f 93       	push	r23
 3ae:	8f 93       	push	r24
 3b0:	9f 93       	push	r25
 3b2:	af 93       	push	r26
 3b4:	bf 93       	push	r27
 3b6:	ef 93       	push	r30
 3b8:	ff 93       	push	r31
	RX_IRQ();
 3ba:	0e 94 5c 02 	call	0x4b8	; 0x4b8 <RX_IRQ>
}
 3be:	ff 91       	pop	r31
 3c0:	ef 91       	pop	r30
 3c2:	bf 91       	pop	r27
 3c4:	af 91       	pop	r26
 3c6:	9f 91       	pop	r25
 3c8:	8f 91       	pop	r24
 3ca:	7f 91       	pop	r23
 3cc:	6f 91       	pop	r22
 3ce:	5f 91       	pop	r21
 3d0:	4f 91       	pop	r20
 3d2:	3f 91       	pop	r19
 3d4:	2f 91       	pop	r18
 3d6:	0f 90       	pop	r0
 3d8:	0f be       	out	0x3f, r0	; 63
 3da:	0f 90       	pop	r0
 3dc:	1f 90       	pop	r1
 3de:	18 95       	reti

000003e0 <main>:

void main(void)
{
	alarm_init();
 3e0:	0e 94 6e 00 	call	0xdc	; 0xdc <alarm_init>
	LED_initPWM();
 3e4:	0e 94 0f 01 	call	0x21e	; 0x21e <LED_initPWM>
	UART_init();
 3e8:	0e 94 fb 01 	call	0x3f6	; 0x3f6 <UART_init>
	
	setAlarmDuration(20);		//set duration of the alarm in seconds
 3ec:	84 e1       	ldi	r24, 0x14	; 20
 3ee:	90 e0       	ldi	r25, 0x00	; 0
 3f0:	0e 94 9f 00 	call	0x13e	; 0x13e <setAlarmDuration>
 3f4:	ff cf       	rjmp	.-2      	; 0x3f4 <main+0x14>

000003f6 <UART_init>:
	for (i = 0; i < length; i++)
	{
		UART_sendByte(*(pointer + i));
	}
	UART_sendByte(FRAME_DELIMITER);
}
 3f6:	f8 94       	cli
 3f8:	24 98       	cbi	0x04, 4	; 4
 3fa:	23 9a       	sbi	0x04, 3	; 4
 3fc:	10 92 cd 00 	sts	0x00CD, r1	; 0x8000cd <__TEXT_REGION_LENGTH__+0x7e00cd>
 400:	83 e3       	ldi	r24, 0x33	; 51
 402:	80 93 cc 00 	sts	0x00CC, r24	; 0x8000cc <__TEXT_REGION_LENGTH__+0x7e00cc>
 406:	10 92 c8 00 	sts	0x00C8, r1	; 0x8000c8 <__TEXT_REGION_LENGTH__+0x7e00c8>
 40a:	e9 ec       	ldi	r30, 0xC9	; 201
 40c:	f0 e0       	ldi	r31, 0x00	; 0
 40e:	10 82       	st	Z, r1
 410:	80 81       	ld	r24, Z
 412:	88 61       	ori	r24, 0x18	; 24
 414:	80 83       	st	Z, r24
 416:	80 81       	ld	r24, Z
 418:	80 68       	ori	r24, 0x80	; 128
 41a:	80 83       	st	Z, r24
 41c:	ea ec       	ldi	r30, 0xCA	; 202
 41e:	f0 e0       	ldi	r31, 0x00	; 0
 420:	10 82       	st	Z, r1
 422:	86 e0       	ldi	r24, 0x06	; 6
 424:	80 83       	st	Z, r24
 426:	78 94       	sei
 428:	08 95       	ret

0000042a <UART_deliverData>:
/*
* reads the read data's first character, and decides which
* module to pass the data to.
*/
void UART_deliverData(void)
{	
 42a:	cf 93       	push	r28
 42c:	df 93       	push	r29
	switch(receiveData[0])
 42e:	80 91 0d 01 	lds	r24, 0x010D	; 0x80010d <receiveData>
 432:	80 33       	cpi	r24, 0x30	; 48
 434:	19 f0       	breq	.+6      	; 0x43c <UART_deliverData+0x12>
 436:	81 33       	cpi	r24, 0x31	; 49
 438:	d9 f0       	breq	.+54     	; 0x470 <UART_deliverData+0x46>
 43a:	3b c0       	rjmp	.+118    	; 0x4b2 <UART_deliverData+0x88>
	{
		case CODE_LED:
			// send to LED.c
			if (receiveData[1] == CODE_RECEIVE)
 43c:	80 91 0e 01 	lds	r24, 0x010E	; 0x80010e <receiveData+0x1>
 440:	8e 33       	cpi	r24, 0x3E	; 62
 442:	99 f4       	brne	.+38     	; 0x46a <UART_deliverData+0x40>
			{
				LED_setValue(CH_RED, receiveData[2]);
 444:	cd e0       	ldi	r28, 0x0D	; 13
 446:	d1 e0       	ldi	r29, 0x01	; 1
 448:	6a 81       	ldd	r22, Y+2	; 0x02
 44a:	81 e0       	ldi	r24, 0x01	; 1
 44c:	0e 94 79 01 	call	0x2f2	; 0x2f2 <LED_setValue>
				LED_setValue(CH_GREEN, receiveData[3]);
 450:	6b 81       	ldd	r22, Y+3	; 0x03
 452:	82 e0       	ldi	r24, 0x02	; 2
 454:	0e 94 79 01 	call	0x2f2	; 0x2f2 <LED_setValue>
				LED_setValue(CH_BLUE, receiveData[4]);
 458:	6c 81       	ldd	r22, Y+4	; 0x04
 45a:	83 e0       	ldi	r24, 0x03	; 3
 45c:	0e 94 79 01 	call	0x2f2	; 0x2f2 <LED_setValue>
				LED_setValue(CH_WHITE, receiveData[5]);
 460:	6d 81       	ldd	r22, Y+5	; 0x05
 462:	84 e0       	ldi	r24, 0x04	; 4
 464:	0e 94 79 01 	call	0x2f2	; 0x2f2 <LED_setValue>
 468:	24 c0       	rjmp	.+72     	; 0x4b2 <UART_deliverData+0x88>
			}
			else if (receiveData[1] == CODE_REQUEST)
 46a:	80 91 0e 01 	lds	r24, 0x010E	; 0x80010e <receiveData+0x1>
 46e:	21 c0       	rjmp	.+66     	; 0x4b2 <UART_deliverData+0x88>
			}
			break;
			
		case CODE_ALARM:
			// send to Alarm.c
			if (receiveData[1] == CODE_RECEIVE)
 470:	80 91 0e 01 	lds	r24, 0x010E	; 0x80010e <receiveData+0x1>
 474:	8e 33       	cpi	r24, 0x3E	; 62
 476:	d9 f4       	brne	.+54     	; 0x4ae <UART_deliverData+0x84>
			{
				uint32_t alarmtime = receiveData[2];
 478:	ed e0       	ldi	r30, 0x0D	; 13
 47a:	f1 e0       	ldi	r31, 0x01	; 1
 47c:	22 81       	ldd	r18, Z+2	; 0x02
				uint8_t i = 0;
				for(i=0;i<3;i++)
				{
					alarmtime << 8;
					alarmtime += receiveData[3+i];
 47e:	63 81       	ldd	r22, Z+3	; 0x03
 480:	86 2f       	mov	r24, r22
 482:	90 e0       	ldi	r25, 0x00	; 0
 484:	a0 e0       	ldi	r26, 0x00	; 0
 486:	b0 e0       	ldi	r27, 0x00	; 0
 488:	82 0f       	add	r24, r18
 48a:	91 1d       	adc	r25, r1
 48c:	a1 1d       	adc	r26, r1
 48e:	b1 1d       	adc	r27, r1
 490:	24 81       	ldd	r18, Z+4	; 0x04
 492:	82 0f       	add	r24, r18
 494:	91 1d       	adc	r25, r1
 496:	a1 1d       	adc	r26, r1
 498:	b1 1d       	adc	r27, r1
 49a:	25 81       	ldd	r18, Z+5	; 0x05
				}
				setAlarmTime(alarmtime);
 49c:	bc 01       	movw	r22, r24
 49e:	cd 01       	movw	r24, r26
 4a0:	62 0f       	add	r22, r18
 4a2:	71 1d       	adc	r23, r1
 4a4:	81 1d       	adc	r24, r1
 4a6:	91 1d       	adc	r25, r1
 4a8:	0e 94 a4 00 	call	0x148	; 0x148 <setAlarmTime>
 4ac:	02 c0       	rjmp	.+4      	; 0x4b2 <UART_deliverData+0x88>
			}
			else if (receiveData[1] == CODE_REQUEST)
 4ae:	80 91 0e 01 	lds	r24, 0x010E	; 0x80010e <receiveData+0x1>
			
		default:
			// do nothing
			break;			
	}
}
 4b2:	df 91       	pop	r29
 4b4:	cf 91       	pop	r28
 4b6:	08 95       	ret

000004b8 <RX_IRQ>:
	sei();
}

void RX_IRQ(void)
{
		character = UDR1;
 4b8:	80 91 ce 00 	lds	r24, 0x00CE	; 0x8000ce <__TEXT_REGION_LENGTH__+0x7e00ce>
 4bc:	80 93 2d 01 	sts	0x012D, r24	; 0x80012d <character>
		if (((character == CODE_LED) || (character == CODE_ALARM)) && (receiving == 0))
 4c0:	80 91 2d 01 	lds	r24, 0x012D	; 0x80012d <character>
 4c4:	80 33       	cpi	r24, 0x30	; 48
 4c6:	21 f0       	breq	.+8      	; 0x4d0 <RX_IRQ+0x18>
 4c8:	80 91 2d 01 	lds	r24, 0x012D	; 0x80012d <character>
 4cc:	81 33       	cpi	r24, 0x31	; 49
 4ce:	49 f4       	brne	.+18     	; 0x4e2 <RX_IRQ+0x2a>
 4d0:	80 91 0b 01 	lds	r24, 0x010B	; 0x80010b <receiving>
 4d4:	81 11       	cpse	r24, r1
 4d6:	05 c0       	rjmp	.+10     	; 0x4e2 <RX_IRQ+0x2a>
		{
			counter = 0;
 4d8:	10 92 0c 01 	sts	0x010C, r1	; 0x80010c <counter>
			receiving = 1;
 4dc:	81 e0       	ldi	r24, 0x01	; 1
 4de:	80 93 0b 01 	sts	0x010B, r24	; 0x80010b <receiving>
		}
		if ((character != FRAME_DELIMITER) || (counter < MAX_MESSAGE_LEN))
 4e2:	80 91 2d 01 	lds	r24, 0x012D	; 0x80012d <character>
 4e6:	8d 30       	cpi	r24, 0x0D	; 13
 4e8:	21 f4       	brne	.+8      	; 0x4f2 <RX_IRQ+0x3a>
 4ea:	80 91 0c 01 	lds	r24, 0x010C	; 0x80010c <counter>
 4ee:	86 30       	cpi	r24, 0x06	; 6
 4f0:	a8 f4       	brcc	.+42     	; 0x51c <RX_IRQ+0x64>
		{
			buffer[counter] = character;
 4f2:	e0 91 0c 01 	lds	r30, 0x010C	; 0x80010c <counter>
 4f6:	f0 e0       	ldi	r31, 0x00	; 0
 4f8:	80 91 2d 01 	lds	r24, 0x012D	; 0x80012d <character>
 4fc:	e3 5e       	subi	r30, 0xE3	; 227
 4fe:	fe 4f       	sbci	r31, 0xFE	; 254
 500:	80 83       	st	Z, r24
			if (counter < (BUFFER_SIZE-1))
 502:	80 91 0c 01 	lds	r24, 0x010C	; 0x80010c <counter>
 506:	8f 30       	cpi	r24, 0x0F	; 15
 508:	30 f4       	brcc	.+12     	; 0x516 <RX_IRQ+0x5e>
			{
				counter++;			
 50a:	80 91 0c 01 	lds	r24, 0x010C	; 0x80010c <counter>
 50e:	8f 5f       	subi	r24, 0xFF	; 255
 510:	80 93 0c 01 	sts	0x010C, r24	; 0x80010c <counter>
 514:	08 95       	ret
			}
			else
			{
				counter = 0;
 516:	10 92 0c 01 	sts	0x010C, r1	; 0x80010c <counter>
 51a:	08 95       	ret
 51c:	80 e0       	ldi	r24, 0x00	; 0
 51e:	90 e0       	ldi	r25, 0x00	; 0
		else
		{
			int i;
			for (i = 0; i < BUFFER_SIZE; i++)
			{
				receiveData[i] = buffer[i];
 520:	fc 01       	movw	r30, r24
 522:	e3 5e       	subi	r30, 0xE3	; 227
 524:	fe 4f       	sbci	r31, 0xFE	; 254
 526:	20 81       	ld	r18, Z
 528:	fc 01       	movw	r30, r24
 52a:	e3 5f       	subi	r30, 0xF3	; 243
 52c:	fe 4f       	sbci	r31, 0xFE	; 254
 52e:	20 83       	st	Z, r18
			}
		}
		else
		{
			int i;
			for (i = 0; i < BUFFER_SIZE; i++)
 530:	01 96       	adiw	r24, 0x01	; 1
 532:	80 31       	cpi	r24, 0x10	; 16
 534:	91 05       	cpc	r25, r1
 536:	a1 f7       	brne	.-24     	; 0x520 <RX_IRQ+0x68>
			{
				receiveData[i] = buffer[i];
			}
			counter = 0;
 538:	10 92 0c 01 	sts	0x010C, r1	; 0x80010c <counter>
			receiving = 0;
 53c:	10 92 0b 01 	sts	0x010B, r1	; 0x80010b <receiving>
			UART_deliverData();
 540:	0e 94 15 02 	call	0x42a	; 0x42a <UART_deliverData>
 544:	08 95       	ret

00000546 <_exit>:
 546:	f8 94       	cli

00000548 <__stop_program>:
 548:	ff cf       	rjmp	.-2      	; 0x548 <__stop_program>
